target datalayout = "e-m:e-p270:32:32-p271:32:32-p272:64:64-i64:64-i128:128-f80:128-n8:16:32:64-S128"
target triple = "x86_64-pc-linux-gnu"

; Function Attrs: inlinehint nounwind uwtable
define internal void @applyLut(ptr noalias noundef %0, ptr noalias noundef %1, i64 noundef %2) #4 {
  %4 = alloca ptr, align 8
  %5 = alloca ptr, align 8
  %6 = alloca i64, align 8
  %7 = alloca [8 x i16], align 16
  %8 = alloca i32, align 4
  %9 = alloca i64, align 8
  store ptr %0, ptr %4, align 8, !tbaa !23
  store ptr %1, ptr %5, align 8, !tbaa !23
  store i64 %2, ptr %6, align 8, !tbaa !18
  call void @llvm.lifetime.start.p0(i64 16, ptr %7) #6
  br label %10

10:                                               ; preds = %35, %3
  %11 = load i64, ptr %6, align 8, !tbaa !18
  %12 = icmp ugt i64 %11, 8
  br i1 %12, label %13, label %42

13:                                               ; preds = %10
  %14 = getelementptr inbounds [8 x i16], ptr %7, i64 0, i64 0
  %15 = load ptr, ptr %5, align 8, !tbaa !23
  call void @llvm.memcpy.p0.p0.i64(ptr align 16 %14, ptr align 2 %15, i64 16, i1 false)
  call void @llvm.lifetime.start.p0(i64 4, ptr %8) #6
  store i32 0, ptr %8, align 4, !tbaa !21
  br label %16

16:                                               ; preds = %32, %13
  %17 = load i32, ptr %8, align 4, !tbaa !21
  %18 = icmp slt i32 %17, 8
  br i1 %18, label %20, label %19

19:                                               ; preds = %16
  call void @llvm.lifetime.end.p0(i64 4, ptr %8) #6
  br label %35

20:                                               ; preds = %16
  %21 = load ptr, ptr %4, align 8, !tbaa !23
  %22 = load i32, ptr %8, align 4, !tbaa !21
  %23 = sext i32 %22 to i64
  %24 = getelementptr inbounds [8 x i16], ptr %7, i64 0, i64 %23
  %25 = load i16, ptr %24, align 2, !tbaa !40
  %26 = zext i16 %25 to i64
  %27 = getelementptr inbounds nuw i16, ptr %21, i64 %26
  %28 = load i16, ptr %27, align 2, !tbaa !40
  %29 = load i32, ptr %8, align 4, !tbaa !21
  %30 = sext i32 %29 to i64
  %31 = getelementptr inbounds [8 x i16], ptr %7, i64 0, i64 %30
  store i16 %28, ptr %31, align 2, !tbaa !40
  br label %32

32:                                               ; preds = %20
  %33 = load i32, ptr %8, align 4, !tbaa !21
  %34 = add nsw i32 %33, 1
  store i32 %34, ptr %8, align 4, !tbaa !21
  br label %16, !llvm.loop !51

35:                                               ; preds = %19
  %36 = load ptr, ptr %5, align 8, !tbaa !23
  %37 = getelementptr inbounds [8 x i16], ptr %7, i64 0, i64 0
  call void @llvm.memcpy.p0.p0.i64(ptr align 2 %36, ptr align 16 %37, i64 16, i1 false)
  %38 = load ptr, ptr %5, align 8, !tbaa !23
  %39 = getelementptr inbounds i16, ptr %38, i64 8
  store ptr %39, ptr %5, align 8, !tbaa !23
  %40 = load i64, ptr %6, align 8, !tbaa !18
  %41 = sub i64 %40, 8
  store i64 %41, ptr %6, align 8, !tbaa !18
  br label %10, !llvm.loop !52

42:                                               ; preds = %10
  call void @llvm.lifetime.start.p0(i64 8, ptr %9) #6
  store i64 0, ptr %9, align 8, !tbaa !18
  br label %43

43:                                               ; preds = %60, %42
  %44 = load i64, ptr %9, align 8, !tbaa !18
  %45 = load i64, ptr %6, align 8, !tbaa !18
  %46 = icmp ult i64 %44, %45
  br i1 %46, label %48, label %47

47:                                               ; preds = %43
  call void @llvm.lifetime.end.p0(i64 8, ptr %9) #6
  br label %63

48:                                               ; preds = %43
  %49 = load ptr, ptr %4, align 8, !tbaa !23
  %50 = load ptr, ptr %5, align 8, !tbaa !23
  %51 = load i64, ptr %9, align 8, !tbaa !18
  %52 = getelementptr inbounds nuw i16, ptr %50, i64 %51
  %53 = load i16, ptr %52, align 2, !tbaa !40
  %54 = zext i16 %53 to i64
  %55 = getelementptr inbounds nuw i16, ptr %49, i64 %54
  %56 = load i16, ptr %55, align 2, !tbaa !40
  %57 = load ptr, ptr %5, align 8, !tbaa !23
  %58 = load i64, ptr %9, align 8, !tbaa !18
  %59 = getelementptr inbounds nuw i16, ptr %57, i64 %58
  store i16 %56, ptr %59, align 2, !tbaa !40
  br label %60

60:                                               ; preds = %48
  %61 = load i64, ptr %9, align 8, !tbaa !18
  %62 = add i64 %61, 1
  store i64 %62, ptr %9, align 8, !tbaa !18
  br label %43, !llvm.loop !53

63:                                               ; preds = %47
  call void @llvm.lifetime.end.p0(i64 16, ptr %7) #6
  ret void
}