; Function Attrs: inlinehint nofree norecurse nosync nounwind memory(argmem: readwrite) uwtable
define internal fastcc void @applyLut(ptr noalias noundef readonly captures(none) %0, ptr noalias noundef captures(none) %1, i64 noundef range(i64 0, -9223372036854775808) %2) unnamed_addr #4 {
  %4 = alloca [8 x i16], align 16
  call void @llvm.lifetime.start.p0(i64 16, ptr nonnull %4) #8
  %5 = icmp samesign ugt i64 %2, 8
  br i1 %5, label %.lr.ph, label %.preheader

.preheader:                                       ; preds = %3
  %.not = icmp eq i64 %2, 0
  br i1 %.not, label %._crit_edge, label %.lr.ph25.preheader

.lr.ph25.preheader:                               ; preds = %6, %.preheader
  %.018.lcssa33 = phi i64 [ %2, %.preheader ], [ %8, %6 ]
  %.019.lcssa32 = phi ptr [ %1, %.preheader ], [ %7, %6 ]
  br label %.lr.ph25

.lr.ph:                                           ; preds = %3, %6
  %.01822 = phi i64 [ %8, %6 ], [ %2, %3 ]
  %.01921 = phi ptr [ %7, %6 ], [ %1, %3 ]
  call void @llvm.memcpy.p0.p0.i64(ptr noundef nonnull align 16 dereferenceable(16) %4, ptr noundef nonnull align 2 dereferenceable(16) %.01921, i64 16, i1 false)
  br label %10

6:                                                ; preds = %10
  call void @llvm.memcpy.p0.p0.i64(ptr noundef nonnull align 2 dereferenceable(16) %.01921, ptr noundef nonnull align 16 dereferenceable(16) %4, i64 16, i1 false)
  %7 = getelementptr inbounds nuw i8, ptr %.01921, i64 16
  %8 = add nsw i64 %.01822, -8
  %9 = icmp ugt i64 %8, 8
  br i1 %9, label %.lr.ph, label %.lr.ph25.preheader, !llvm.loop !33

10:                                               ; preds = %.lr.ph, %10
  %indvars.iv = phi i64 [ 0, %.lr.ph ], [ %indvars.iv.next, %10 ]
  %11 = getelementptr inbounds nuw [8 x i16], ptr %4, i64 0, i64 %indvars.iv
  %12 = load i16, ptr %11, align 2, !tbaa !22
  %13 = zext i16 %12 to i64
  %14 = getelementptr inbounds nuw i16, ptr %0, i64 %13
  %15 = load i16, ptr %14, align 2, !tbaa !22
  store i16 %15, ptr %11, align 2, !tbaa !22
  %indvars.iv.next = add nuw nsw i64 %indvars.iv, 1
  %exitcond.not = icmp eq i64 %indvars.iv.next, 8
  br i1 %exitcond.not, label %6, label %10, !llvm.loop !34

._crit_edge:                                      ; preds = %.lr.ph25, %.preheader
  call void @llvm.lifetime.end.p0(i64 16, ptr nonnull %4) #8
  ret void

.lr.ph25:                                         ; preds = %.lr.ph25.preheader, %.lr.ph25
  %.024 = phi i64 [ %21, %.lr.ph25 ], [ 0, %.lr.ph25.preheader ]
  %16 = getelementptr inbounds nuw i16, ptr %.019.lcssa32, i64 %.024
  %17 = load i16, ptr %16, align 2, !tbaa !22
  %18 = zext i16 %17 to i64
  %19 = getelementptr inbounds nuw i16, ptr %0, i64 %18
  %20 = load i16, ptr %19, align 2, !tbaa !22
  store i16 %20, ptr %16, align 2, !tbaa !22
  %21 = add nuw nsw i64 %.024, 1
  %exitcond28.not = icmp eq i64 %21, %.018.lcssa33
  br i1 %exitcond28.not, label %._crit_edge, label %.lr.ph25, !llvm.loop !35
}